target datalayout = "e-m:e-p270:32:32-p271:32:32-p272:64:64-i64:64-i128:128-f80:128-n8:16:32:64-S128"
target triple = "x86_64-pc-linux-gnu"

%struct.RBasic = type { i64, i64 }
%struct.RBignum = type { %struct.RBasic, %union.anon.21 }
%union.anon.21 = type { %struct.anon.22, [8 x i8] }
%struct.anon.22 = type { i64, ptr }

@rb_eMathDomainError = external global i64, align 8
@.str.156 = private unnamed_addr constant [46 x i8] c"Numerical argument is out of domain - \22isqrt\22\00", align 1

; Function Attrs: inlinehint nounwind sspstrong willreturn memory(read) uwtable
define internal i64 @RB_FL_TEST_RAW(i64 noundef %0, i64 noundef %1) #5 {
  %3 = alloca i64, align 8
  %4 = alloca i64, align 8
  store i64 %0, ptr %3, align 8, !tbaa !7
  store i64 %1, ptr %4, align 8, !tbaa !7
  %5 = load i64, ptr %3, align 8, !tbaa !7
  %6 = inttoptr i64 %5 to ptr
  %7 = getelementptr inbounds nuw %struct.RBasic, ptr %6, i32 0, i32 0
  %8 = load i64, ptr %7, align 8, !tbaa !49
  %9 = load i64, ptr %4, align 8, !tbaa !7
  %10 = and i64 %8, %9
  ret i64 %10
}

; Function Attrs: inlinehint nounwind sspstrong willreturn memory(none) uwtable
define internal i64 @rbimpl_fix2long_by_idiv(i64 noundef %0) #4 {
  %2 = alloca i64, align 8
  %3 = alloca i64, align 8
  %4 = alloca i64, align 8
  %5 = alloca i64, align 8
  store i64 %0, ptr %2, align 8, !tbaa !7
  call void @llvm.lifetime.start.p0(i64 8, ptr %3) #25
  %6 = load i64, ptr %2, align 8, !tbaa !7
  %7 = sub i64 %6, 1
  store i64 %7, ptr %3, align 8, !tbaa !7
  call void @llvm.lifetime.start.p0(i64 8, ptr %4) #25
  %8 = load i64, ptr %3, align 8, !tbaa !7
  %9 = sdiv i64 %8, 2
  store i64 %9, ptr %4, align 8, !tbaa !7
  call void @llvm.lifetime.start.p0(i64 8, ptr %5) #25
  %10 = load i64, ptr %4, align 8, !tbaa !7
  store i64 %10, ptr %5, align 8, !tbaa !7
  %11 = load i64, ptr %5, align 8, !tbaa !7
  call void @llvm.lifetime.end.p0(i64 8, ptr %5) #25
  call void @llvm.lifetime.end.p0(i64 8, ptr %4) #25
  call void @llvm.lifetime.end.p0(i64 8, ptr %3) #25
  ret i64 %11
}

; Function Attrs: inlinehint nounwind sspstrong willreturn memory(none) uwtable
define internal i64 @rbimpl_fix2long_by_shift(i64 noundef %0) #4 {
  %2 = alloca i64, align 8
  %3 = alloca i64, align 8
  %4 = alloca i64, align 8
  %5 = alloca i64, align 8
  store i64 %0, ptr %2, align 8, !tbaa !7
  call void @llvm.lifetime.start.p0(i64 8, ptr %3) #25
  %6 = load i64, ptr %2, align 8, !tbaa !7
  store i64 %6, ptr %3, align 8, !tbaa !7
  call void @llvm.lifetime.start.p0(i64 8, ptr %4) #25
  %7 = load i64, ptr %3, align 8, !tbaa !7
  %8 = ashr i64 %7, 1
  store i64 %8, ptr %4, align 8, !tbaa !7
  call void @llvm.lifetime.start.p0(i64 8, ptr %5) #25
  %9 = load i64, ptr %4, align 8, !tbaa !7
  store i64 %9, ptr %5, align 8, !tbaa !7
  %10 = load i64, ptr %5, align 8, !tbaa !7
  call void @llvm.lifetime.end.p0(i64 8, ptr %5) #25
  call void @llvm.lifetime.end.p0(i64 8, ptr %4) #25
  call void @llvm.lifetime.end.p0(i64 8, ptr %3) #25
  ret i64 %10
}

; Function Attrs: inlinehint nounwind sspstrong willreturn memory(none) uwtable
define internal zeroext i1 @rbimpl_right_shift_is_arithmetic_p() #4 {
  ret i1 true
}

; Function Attrs: inlinehint nounwind sspstrong uwtable
define internal zeroext i1 @BIGNUM_EMBED_P(i64 noundef %0) #8 {
  %2 = alloca i64, align 8
  store i64 %0, ptr %2, align 8, !tbaa !7
  %3 = load i64, ptr %2, align 8, !tbaa !7
  %4 = call i64 @RB_FL_TEST_RAW(i64 noundef %3, i64 noundef 16384) #27
  %5 = icmp ne i64 %4, 0
  ret i1 %5
}

; Function Attrs: inlinehint nounwind sspstrong uwtable
define internal zeroext i1 @RBIGNUM_POSITIVE_P(i64 noundef %0) #8 {
  %2 = alloca i64, align 8
  store i64 %0, ptr %2, align 8, !tbaa !7
  %3 = load i64, ptr %2, align 8, !tbaa !7
  %4 = call i32 @rb_big_sign(i64 noundef %3)
  %5 = icmp ne i32 %4, 0
  ret i1 %5
}

; Function Attrs: inlinehint nounwind sspstrong uwtable
define internal i32 @nlz_int64(i64 noundef %0) #8 {
  %2 = alloca i32, align 4
  %3 = alloca i64, align 8
  store i64 %0, ptr %3, align 8, !tbaa !7
  %4 = load i64, ptr %3, align 8, !tbaa !7
  %5 = icmp eq i64 %4, 0
  br i1 %5, label %6, label %7

6:                                                ; preds = %1
  store i32 64, ptr %2, align 4
  br label %11

7:                                                ; preds = %1
  %8 = load i64, ptr %3, align 8, !tbaa !7
  %9 = call i64 @llvm.ctlz.i64(i64 %8, i1 true)
  %10 = trunc i64 %9 to i32
  store i32 %10, ptr %2, align 4
  br label %11

11:                                               ; preds = %7, %6
  %12 = load i32, ptr %2, align 4
  ret i32 %12
}

; Function Attrs: inlinehint nounwind sspstrong willreturn memory(none) uwtable
define internal i64 @rb_fix2long(i64 noundef %0) #4 {
  %2 = alloca i64, align 8
  %3 = alloca i64, align 8
  store i64 %0, ptr %3, align 8, !tbaa !7
  %4 = call zeroext i1 @rbimpl_right_shift_is_arithmetic_p() #26
  br i1 %4, label %5, label %8

5:                                                ; preds = %1
  %6 = load i64, ptr %3, align 8, !tbaa !7
  %7 = call i64 @rbimpl_fix2long_by_shift(i64 noundef %6) #26
  store i64 %7, ptr %2, align 8
  br label %11

8:                                                ; preds = %1
  %9 = load i64, ptr %3, align 8, !tbaa !7
  %10 = call i64 @rbimpl_fix2long_by_idiv(i64 noundef %9) #26
  store i64 %10, ptr %2, align 8
  br label %11

11:                                               ; preds = %8, %5
  %12 = load i64, ptr %2, align 8
  ret i64 %12
}

; Function Attrs: inlinehint nounwind sspstrong uwtable
define internal i64 @rb_ulong2num_inline(i64 noundef %0) #8 {
  %2 = alloca i64, align 8
  %3 = alloca i64, align 8
  store i64 %0, ptr %3, align 8, !tbaa !7
  %4 = load i64, ptr %3, align 8, !tbaa !7
  %5 = icmp ult i64 %4, 4611686018427387904
  br i1 %5, label %6, label %9

6:                                                ; preds = %1
  %7 = load i64, ptr %3, align 8, !tbaa !7
  %8 = call i64 @RB_INT2FIX(i64 noundef %7) #26
  store i64 %8, ptr %2, align 8
  br label %12

9:                                                ; preds = %1
  %10 = load i64, ptr %3, align 8, !tbaa !7
  %11 = call i64 @rb_uint2big(i64 noundef %10)
  store i64 %11, ptr %2, align 8
  br label %12

12:                                               ; preds = %9, %6
  %13 = load i64, ptr %2, align 8
  ret i64 %13
}

; Function Attrs: inlinehint nounwind sspstrong uwtable
define internal ptr @BIGNUM_DIGITS(i64 noundef %0) #8 {
  %2 = alloca ptr, align 8
  %3 = alloca i64, align 8
  store i64 %0, ptr %3, align 8, !tbaa !7
  %4 = load i64, ptr %3, align 8, !tbaa !7
  %5 = call zeroext i1 @BIGNUM_EMBED_P(i64 noundef %4)
  br i1 %5, label %6, label %11

6:                                                ; preds = %1
  %7 = load i64, ptr %3, align 8, !tbaa !7
  %8 = inttoptr i64 %7 to ptr
  %9 = getelementptr inbounds nuw %struct.RBignum, ptr %8, i32 0, i32 1
  %10 = getelementptr inbounds [6 x i32], ptr %9, i64 0, i64 0
  store ptr %10, ptr %2, align 8
  br label %17

11:                                               ; preds = %1
  %12 = load i64, ptr %3, align 8, !tbaa !7
  %13 = inttoptr i64 %12 to ptr
  %14 = getelementptr inbounds nuw %struct.RBignum, ptr %13, i32 0, i32 1
  %15 = getelementptr inbounds nuw %struct.anon.22, ptr %14, i32 0, i32 1
  %16 = load ptr, ptr %15, align 8, !tbaa !16
  store ptr %16, ptr %2, align 8
  br label %17

17:                                               ; preds = %11, %6
  %18 = load ptr, ptr %2, align 8
  ret ptr %18
}

; Function Attrs: inlinehint nounwind sspstrong uwtable
define internal i64 @BIGNUM_LEN(i64 noundef %0) #8 {
  %2 = alloca i64, align 8
  %3 = alloca i64, align 8
  %4 = alloca i64, align 8
  store i64 %0, ptr %3, align 8, !tbaa !7
  %5 = load i64, ptr %3, align 8, !tbaa !7
  %6 = call zeroext i1 @BIGNUM_EMBED_P(i64 noundef %5)
  br i1 %6, label %13, label %7

7:                                                ; preds = %1
  %8 = load i64, ptr %3, align 8, !tbaa !7
  %9 = inttoptr i64 %8 to ptr
  %10 = getelementptr inbounds nuw %struct.RBignum, ptr %9, i32 0, i32 1
  %11 = getelementptr inbounds nuw %struct.anon.22, ptr %10, i32 0, i32 0
  %12 = load i64, ptr %11, align 8, !tbaa !16
  store i64 %12, ptr %2, align 8
  br label %23

13:                                               ; preds = %1
  call void @llvm.lifetime.start.p0(i64 8, ptr %4) #25
  %14 = load i64, ptr %3, align 8, !tbaa !7
  %15 = inttoptr i64 %14 to ptr
  %16 = getelementptr inbounds nuw %struct.RBasic, ptr %15, i32 0, i32 0
  %17 = load i64, ptr %16, align 8, !tbaa !49
  store i64 %17, ptr %4, align 8, !tbaa !7
  %18 = load i64, ptr %4, align 8, !tbaa !7
  %19 = and i64 %18, 229376
  store i64 %19, ptr %4, align 8, !tbaa !7
  %20 = load i64, ptr %4, align 8, !tbaa !7
  %21 = lshr i64 %20, 15
  store i64 %21, ptr %4, align 8, !tbaa !7
  %22 = load i64, ptr %4, align 8, !tbaa !7
  store i64 %22, ptr %2, align 8
  call void @llvm.lifetime.end.p0(i64 8, ptr %4) #25
  br label %23

23:                                               ; preds = %13, %7
  %24 = load i64, ptr %2, align 8
  ret i64 %24
}

; Function Attrs: inlinehint nounwind sspstrong uwtable
define internal zeroext i1 @RBIGNUM_NEGATIVE_P(i64 noundef %0) #8 {
  %2 = alloca i64, align 8
  store i64 %0, ptr %2, align 8, !tbaa !7
  %3 = load i64, ptr %2, align 8, !tbaa !7
  %4 = call zeroext i1 @RBIGNUM_POSITIVE_P(i64 noundef %3)
  %5 = xor i1 %4, true
  ret i1 %5
}

; Function Attrs: inlinehint nounwind sspstrong willreturn memory(none) uwtable
define internal i64 @RB_INT2FIX(i64 noundef %0) #4 {
  %2 = alloca i64, align 8
  %3 = alloca i64, align 8
  %4 = alloca i64, align 8
  %5 = alloca i64, align 8
  %6 = alloca i64, align 8
  %7 = alloca i64, align 8
  store i64 %0, ptr %2, align 8, !tbaa !7
  call void @llvm.lifetime.start.p0(i64 8, ptr %3) #25
  %8 = load i64, ptr %2, align 8, !tbaa !7
  store i64 %8, ptr %3, align 8, !tbaa !7
  call void @llvm.lifetime.start.p0(i64 8, ptr %4) #25
  %9 = load i64, ptr %3, align 8, !tbaa !7
  %10 = shl i64 %9, 1
  %11 = add i64 %10, 1
  store i64 %11, ptr %4, align 8, !tbaa !7
  call void @llvm.lifetime.start.p0(i64 8, ptr %5) #25
  %12 = load i64, ptr %4, align 8, !tbaa !7
  store i64 %12, ptr %5, align 8, !tbaa !7
  call void @llvm.lifetime.start.p0(i64 8, ptr %6) #25
  %13 = load i64, ptr %5, align 8, !tbaa !7
  store i64 %13, ptr %6, align 8, !tbaa !7
  call void @llvm.lifetime.start.p0(i64 8, ptr %7) #25
  %14 = load i64, ptr %6, align 8, !tbaa !7
  store i64 %14, ptr %7, align 8, !tbaa !7
  %15 = load i64, ptr %7, align 8, !tbaa !7
  call void @llvm.lifetime.end.p0(i64 8, ptr %7) #25
  call void @llvm.lifetime.end.p0(i64 8, ptr %6) #25
  call void @llvm.lifetime.end.p0(i64 8, ptr %5) #25
  call void @llvm.lifetime.end.p0(i64 8, ptr %4) #25
  call void @llvm.lifetime.end.p0(i64 8, ptr %3) #25
  ret i64 %15
}

; Function Attrs: nounwind sspstrong uwtable
define hidden i64 @rb_ulong_isqrt(i64 noundef %0) #2 {
  %2 = alloca i64, align 8
  %3 = alloca i64, align 8
  %4 = alloca i32, align 4
  %5 = alloca i64, align 8
  %6 = alloca i64, align 8
  store i64 %0, ptr %3, align 8, !tbaa !7
  %7 = load i64, ptr %3, align 8, !tbaa !7
  %8 = icmp ult i64 %7, 9007199254740992
  br i1 %8, label %39, label %9

9:                                                ; preds = %1
  call void @llvm.lifetime.start.p0(i64 4, ptr %4) #25
  %10 = load i64, ptr %3, align 8, !tbaa !7
  %11 = call i32 @nlz_int64(i64 noundef %10)
  %12 = sub i32 64, %11
  store i32 %12, ptr %4, align 4, !tbaa !14
  call void @llvm.lifetime.start.p0(i64 8, ptr %5) #25
  call void @llvm.lifetime.start.p0(i64 8, ptr %6) #25
  %13 = load i64, ptr %3, align 8, !tbaa !7
  %14 = load i32, ptr %4, align 4, !tbaa !14
  %15 = udiv i32 %14, 2
  %16 = add i32 %15, 1
  %17 = zext i32 %16 to i64
  %18 = lshr i64 %13, %17
  store i64 %18, ptr %6, align 8, !tbaa !7
  %19 = load i32, ptr %4, align 4, !tbaa !14
  %20 = sub i32 %19, 1
  %21 = udiv i32 %20, 2
  %22 = zext i32 %21 to i64
  %23 = shl i64 1, %22
  %24 = load i64, ptr %6, align 8, !tbaa !7
  %25 = or i64 %24, %23
  store i64 %25, ptr %6, align 8, !tbaa !7
  br label %26

26:                                               ; preds = %32, %9
  %27 = load i64, ptr %3, align 8, !tbaa !7
  %28 = load i64, ptr %6, align 8, !tbaa !7
  %29 = udiv i64 %27, %28
  store i64 %29, ptr %5, align 8, !tbaa !7
  %30 = load i64, ptr %6, align 8, !tbaa !7
  %31 = icmp ult i64 %29, %30
  br i1 %31, label %32, label %37

32:                                               ; preds = %26
  %33 = load i64, ptr %6, align 8, !tbaa !7
  %34 = load i64, ptr %5, align 8, !tbaa !7
  %35 = add i64 %33, %34
  %36 = lshr i64 %35, 1
  store i64 %36, ptr %6, align 8, !tbaa !7
  br label %26, !llvm.loop !50

37:                                               ; preds = %26
  %38 = load i64, ptr %6, align 8, !tbaa !7
  store i64 %38, ptr %2, align 8
  call void @llvm.lifetime.end.p0(i64 8, ptr %6) #25
  call void @llvm.lifetime.end.p0(i64 8, ptr %5) #25
  call void @llvm.lifetime.end.p0(i64 4, ptr %4) #25
  br label %44

39:                                               ; preds = %1
  %40 = load i64, ptr %3, align 8, !tbaa !7
  %41 = uitofp i64 %40 to double
  %42 = call double @sqrt(double noundef %41) #25, !tbaa !14
  %43 = fptoui double %42 to i64
  store i64 %43, ptr %2, align 8
  br label %44

44:                                               ; preds = %39, %37
  %45 = load i64, ptr %2, align 8
  ret i64 %45
}

; Function Attrs: inlinehint nounwind sspstrong willreturn memory(none) uwtable
define internal i64 @rb_fix2ulong(i64 noundef %0) #4 {
  %2 = alloca i64, align 8
  store i64 %0, ptr %2, align 8, !tbaa !7
  %3 = load i64, ptr %2, align 8, !tbaa !7
  %4 = call i64 @rb_fix2long(i64 noundef %3) #26
  ret i64 %4
}

; Function Attrs: inlinehint nounwind sspstrong uwtable
define internal zeroext i1 @FIXNUM_NEGATIVE_P(i64 noundef %0) #8 {
  %2 = alloca i64, align 8
  store i64 %0, ptr %2, align 8, !tbaa !7
  %3 = load i64, ptr %2, align 8, !tbaa !7
  %4 = icmp slt i64 %3, 0
  ret i1 %4
}

; Function Attrs: inlinehint nounwind sspstrong willreturn memory(none) uwtable
define internal zeroext i1 @RB_FIXNUM_P(i64 noundef %0) #4 {
  %2 = alloca i64, align 8
  store i64 %0, ptr %2, align 8, !tbaa !7
  %3 = load i64, ptr %2, align 8, !tbaa !7
  %4 = and i64 %3, 1
  %5 = icmp ne i64 %4, 0
  ret i1 %5
}

; Function Attrs: nounwind sspstrong uwtable
define internal i64 @rb_int_s_isqrt(i64 noundef %0, i64 noundef %1) #2 {
  %3 = alloca i64, align 8
  %4 = alloca i64, align 8
  %5 = alloca i64, align 8
  %6 = alloca i64, align 8
  %7 = alloca i64, align 8
  %8 = alloca i32, align 4
  %9 = alloca i64, align 8
  store i64 %0, ptr %4, align 8, !tbaa !7
  store i64 %1, ptr %5, align 8, !tbaa !7
  call void @llvm.lifetime.start.p0(i64 8, ptr %6) #25
  call void @llvm.lifetime.start.p0(i64 8, ptr %7) #25
  %10 = load i64, ptr %5, align 8, !tbaa !7
  %11 = call i64 @rb_to_int(i64 noundef %10)
  store i64 %11, ptr %5, align 8, !tbaa !7
  %12 = load i64, ptr %5, align 8, !tbaa !7
  %13 = call zeroext i1 @RB_FIXNUM_P(i64 noundef %12) #26
  br i1 %13, label %14, label %26

14:                                               ; preds = %2
  %15 = load i64, ptr %5, align 8, !tbaa !7
  %16 = call zeroext i1 @FIXNUM_NEGATIVE_P(i64 noundef %15)
  br i1 %16, label %17, label %19

17:                                               ; preds = %14
  %18 = load i64, ptr @rb_eMathDomainError, align 8, !tbaa !7
  call void (i64, ptr, ...) @rb_raise(i64 noundef %18, ptr noundef @.str.156) #24
  unreachable

19:                                               ; preds = %14
  %20 = load i64, ptr %5, align 8, !tbaa !7
  %21 = call i64 @rb_fix2ulong(i64 noundef %20) #26
  store i64 %21, ptr %6, align 8, !tbaa !7
  %22 = load i64, ptr %6, align 8, !tbaa !7
  %23 = call i64 @rb_ulong_isqrt(i64 noundef %22)
  store i64 %23, ptr %7, align 8, !tbaa !7
  %24 = load i64, ptr %7, align 8, !tbaa !7
  %25 = call i64 @RB_INT2FIX(i64 noundef %24) #26
  store i64 %25, ptr %3, align 8
  store i32 1, ptr %8, align 4
  br label %54

26:                                               ; preds = %2
  call void @llvm.lifetime.start.p0(i64 8, ptr %9) #25
  %27 = load i64, ptr %5, align 8, !tbaa !7
  %28 = call zeroext i1 @RBIGNUM_NEGATIVE_P(i64 noundef %27)
  br i1 %28, label %29, label %31

29:                                               ; preds = %26
  %30 = load i64, ptr @rb_eMathDomainError, align 8, !tbaa !7
  call void (i64, ptr, ...) @rb_raise(i64 noundef %30, ptr noundef @.str.156) #24
  unreachable

31:                                               ; preds = %26
  %32 = load i64, ptr %5, align 8, !tbaa !7
  %33 = call i64 @BIGNUM_LEN(i64 noundef %32)
  store i64 %33, ptr %9, align 8, !tbaa !7
  %34 = load i64, ptr %9, align 8, !tbaa !7
  %35 = icmp eq i64 %34, 0
  br i1 %35, label %36, label %37

36:                                               ; preds = %31
  store i64 1, ptr %3, align 8
  store i32 1, ptr %8, align 4
  br label %53

37:                                               ; preds = %31
  %38 = load i64, ptr %9, align 8, !tbaa !7
  %39 = icmp eq i64 %38, 1
  br i1 %39, label %40, label %50

40:                                               ; preds = %37
  %41 = load i64, ptr %5, align 8, !tbaa !7
  %42 = call ptr @BIGNUM_DIGITS(i64 noundef %41)
  %43 = getelementptr i32, ptr %42, i64 0
  %44 = load i32, ptr %43, align 4, !tbaa !14
  %45 = zext i32 %44 to i64
  store i64 %45, ptr %6, align 8, !tbaa !7
  %46 = load i64, ptr %6, align 8, !tbaa !7
  %47 = call i64 @rb_ulong_isqrt(i64 noundef %46)
  store i64 %47, ptr %7, align 8, !tbaa !7
  %48 = load i64, ptr %7, align 8, !tbaa !7
  %49 = call i64 @rb_ulong2num_inline(i64 noundef %48)
  store i64 %49, ptr %3, align 8
  store i32 1, ptr %8, align 4
  br label %53

50:                                               ; preds = %37
  %51 = load i64, ptr %5, align 8, !tbaa !7
  %52 = call i64 @rb_big_isqrt(i64 noundef %51)
  store i64 %52, ptr %3, align 8
  store i32 1, ptr %8, align 4
  br label %53

53:                                               ; preds = %50, %40, %36
  call void @llvm.lifetime.end.p0(i64 8, ptr %9) #25
  br label %54

54:                                               ; preds = %53, %19
  call void @llvm.lifetime.end.p0(i64 8, ptr %7) #25
  call void @llvm.lifetime.end.p0(i64 8, ptr %6) #25
  %55 = load i64, ptr %3, align 8
  ret i64 %55
}