; Function Attrs: nounwind sspstrong uwtable
define internal i64 @rb_int_s_isqrt(i64 %0, i64 noundef %1) #2 {
  %3 = tail call i64 @rb_to_int(i64 noundef %1) #26
  %4 = and i64 %3, 1
  %.not = icmp eq i64 %4, 0
  br i1 %.not, label %36, label %5

5:                                                ; preds = %2
  %6 = icmp slt i64 %3, 0
  br i1 %6, label %7, label %9

7:                                                ; preds = %5
  %8 = load i64, ptr @rb_eMathDomainError, align 8, !tbaa !7
  tail call void (i64, ptr, ...) @rb_raise(i64 noundef %8, ptr noundef nonnull @.str.156) #25
  unreachable

9:                                                ; preds = %5
  %10 = lshr i64 %3, 1
  %11 = icmp samesign ult i64 %3, 18014398509481984
  br i1 %11, label %31, label %12

12:                                               ; preds = %9
  %13 = tail call range(i64 0, 65) i64 @llvm.ctlz.i64(i64 %10, i1 true)
  %14 = trunc nuw nsw i64 %13 to i32
  %15 = sub nuw nsw i32 64, %14
  %16 = lshr i32 %15, 1
  %17 = add nuw nsw i32 %16, 1
  %18 = zext nneg i32 %17 to i64
  %19 = lshr i64 %10, %18
  %20 = lshr i64 %13, 1
  %21 = xor i64 %20, 31
  %22 = shl nuw nsw i64 1, %21
  %23 = or i64 %19, %22
  %24 = udiv i64 %10, %23
  %25 = icmp samesign ult i64 %24, %23
  br i1 %25, label %.lr.ph.i, label %rb_ulong_isqrt.exit

.lr.ph.i:                                         ; preds = %12, %.lr.ph.i
  %26 = phi i64 [ %29, %.lr.ph.i ], [ %24, %12 ]
  %.017.i = phi i64 [ %28, %.lr.ph.i ], [ %23, %12 ]
  %27 = add i64 %.017.i, %26
  %28 = lshr i64 %27, 1
  %29 = udiv i64 %10, %28
  %30 = icmp samesign ult i64 %29, %28
  br i1 %30, label %.lr.ph.i, label %rb_ulong_isqrt.exit, !llvm.loop !47

31:                                               ; preds = %9
  %32 = uitofp nneg i64 %10 to double
  %sqrt.i = tail call double @llvm.sqrt.f64(double %32)
  %33 = fptoui double %sqrt.i to i64
  br label %rb_ulong_isqrt.exit

rb_ulong_isqrt.exit:                              ; preds = %.lr.ph.i, %12, %31
  %.014.i = phi i64 [ %33, %31 ], [ %23, %12 ], [ %28, %.lr.ph.i ]
  %34 = shl i64 %.014.i, 1
  %35 = or disjoint i64 %34, 1
  br label %rb_ulong2num_inline.exit

36:                                               ; preds = %2
  %37 = tail call i32 @rb_big_sign(i64 noundef %3) #26
  %.not.i = icmp eq i32 %37, 0
  br i1 %.not.i, label %38, label %40

38:                                               ; preds = %36
  %39 = load i64, ptr @rb_eMathDomainError, align 8, !tbaa !7
  tail call void (i64, ptr, ...) @rb_raise(i64 noundef %39, ptr noundef nonnull @.str.156) #25
  unreachable

40:                                               ; preds = %36
  %41 = inttoptr i64 %3 to ptr
  %42 = load i64, ptr %41, align 8, !tbaa !11
  %43 = and i64 %42, 16384
  %.not.i16 = icmp eq i64 %43, 0
  br i1 %.not.i16, label %44, label %47

44:                                               ; preds = %40
  %45 = getelementptr inbounds nuw i8, ptr %41, i64 16
  %46 = load i64, ptr %45, align 8, !tbaa !20
  br label %BIGNUM_LEN.exit

47:                                               ; preds = %40
  %48 = lshr i64 %42, 15
  %49 = and i64 %48, 7
  br label %BIGNUM_LEN.exit

BIGNUM_LEN.exit:                                  ; preds = %44, %47
  %.0.i = phi i64 [ %49, %47 ], [ %46, %44 ]
  switch i64 %.0.i, label %65 [
    i64 0, label %rb_ulong2num_inline.exit
    i64 1, label %50
  ]

50:                                               ; preds = %BIGNUM_LEN.exit
  br i1 %.not.i16, label %53, label %51

51:                                               ; preds = %50
  %52 = getelementptr inbounds nuw i8, ptr %41, i64 16
  br label %BIGNUM_DIGITS.exit

53:                                               ; preds = %50
  %54 = getelementptr inbounds nuw i8, ptr %41, i64 24
  %55 = load ptr, ptr %54, align 8, !tbaa !20
  br label %BIGNUM_DIGITS.exit

BIGNUM_DIGITS.exit:                               ; preds = %51, %53
  %.0.i18 = phi ptr [ %52, %51 ], [ %55, %53 ]
  %56 = load i32, ptr %.0.i18, align 4, !tbaa !18
  %57 = uitofp i32 %56 to double
  %sqrt.i22 = tail call double @llvm.sqrt.f64(double %57)
  %58 = fptoui double %sqrt.i22 to i64
  %59 = icmp ult i64 %58, 4611686018427387904
  br i1 %59, label %60, label %63

60:                                               ; preds = %BIGNUM_DIGITS.exit
  %61 = shl nuw nsw i64 %58, 1
  %62 = or disjoint i64 %61, 1
  br label %rb_ulong2num_inline.exit

63:                                               ; preds = %BIGNUM_DIGITS.exit
  %64 = tail call i64 @rb_uint2big(i64 noundef %58) #26
  br label %rb_ulong2num_inline.exit

65:                                               ; preds = %BIGNUM_LEN.exit
  %66 = tail call i64 @rb_big_isqrt(i64 noundef %3) #26
  br label %rb_ulong2num_inline.exit

rb_ulong2num_inline.exit:                         ; preds = %63, %60, %65, %BIGNUM_LEN.exit, %rb_ulong_isqrt.exit
  %.0 = phi i64 [ %35, %rb_ulong_isqrt.exit ], [ %66, %65 ], [ 1, %BIGNUM_LEN.exit ], [ %62, %60 ], [ %64, %63 ]
  ret i64 %.0
}